; Function Attrs: nounwind uwtable
define internal void @stbir__encode_float_linear(ptr noundef %0, i32 noundef %1, ptr noundef %2) #22 {
  %.not = icmp eq ptr %0, %2
  br i1 %.not, label %stbir_simd_memcpy.exit, label %4

4:                                                ; preds = %3
  %5 = sext i32 %1 to i64
  %6 = shl nsw i64 %5, 2
  %7 = getelementptr inbounds nuw i8, ptr %0, i64 %6
  %8 = ptrtoint ptr %2 to i64
  %9 = ptrtoint ptr %0 to i64
  %10 = sub i64 %8, %9
  %11 = icmp ult i64 %6, 64
  br i1 %11, label %12, label %34

12:                                               ; preds = %4
  %13 = icmp samesign ult i64 %6, 16
  br i1 %13, label %14, label %19

14:                                               ; preds = %12
  %.not.i = icmp eq i32 %1, 0
  br i1 %.not.i, label %stbir_simd_memcpy.exit, label %.preheader.i

.preheader.i:                                     ; preds = %14, %.preheader.i
  %.0.i = phi ptr [ %17, %.preheader.i ], [ %0, %14 ]
  tail call void asm sideeffect "", "r,~{dirflag},~{fpsr},~{flags}"(ptr %.0.i) #54, !srcloc !3
  %15 = getelementptr inbounds i8, ptr %.0.i, i64 %10
  %16 = load i8, ptr %15, align 1
  store i8 %16, ptr %.0.i, align 1
  %17 = getelementptr inbounds nuw i8, ptr %.0.i, i64 1
  %18 = icmp ult ptr %17, %7
  br i1 %18, label %.preheader.i, label %stbir_simd_memcpy.exit, !llvm.loop !4

19:                                               ; preds = %12
  %20 = getelementptr inbounds i8, ptr %0, i64 %10
  %21 = load <4 x float>, ptr %20, align 1
  store <4 x float> %21, ptr %0, align 1
  %22 = and i64 %9, -16
  %23 = add i64 %22, 16
  %24 = inttoptr i64 %23 to ptr
  %25 = getelementptr inbounds i8, ptr %7, i64 -16
  br label %26

26:                                               ; preds = %30, %19
  %.1.i = phi ptr [ %24, %19 ], [ %33, %30 ]
  tail call void asm sideeffect "", "r,~{dirflag},~{fpsr},~{flags}"(ptr %.1.i) #54, !srcloc !7
  %27 = icmp ugt ptr %.1.i, %25
  br i1 %27, label %28, label %30

28:                                               ; preds = %26
  %29 = icmp eq ptr %.1.i, %7
  br i1 %29, label %stbir_simd_memcpy.exit, label %30

30:                                               ; preds = %28, %26
  %.2.i = phi ptr [ %.1.i, %26 ], [ %25, %28 ]
  %31 = getelementptr inbounds i8, ptr %.2.i, i64 %10
  %32 = load <4 x float>, ptr %31, align 1
  store <4 x float> %32, ptr %.2.i, align 1
  %33 = getelementptr inbounds nuw i8, ptr %.2.i, i64 16
  br label %26, !llvm.loop !8

34:                                               ; preds = %4
  %35 = getelementptr inbounds i8, ptr %0, i64 %10
  %36 = load <4 x float>, ptr %35, align 1
  %37 = getelementptr inbounds nuw i8, ptr %35, i64 16
  %38 = load <4 x float>, ptr %37, align 1
  %39 = getelementptr inbounds nuw i8, ptr %35, i64 32
  %40 = load <4 x float>, ptr %39, align 1
  %41 = getelementptr inbounds nuw i8, ptr %35, i64 48
  %42 = load <4 x float>, ptr %41, align 1
  store <4 x float> %36, ptr %0, align 1
  %43 = getelementptr inbounds nuw i8, ptr %0, i64 16
  store <4 x float> %38, ptr %43, align 1
  %44 = getelementptr inbounds nuw i8, ptr %0, i64 32
  store <4 x float> %40, ptr %44, align 1
  %45 = getelementptr inbounds nuw i8, ptr %0, i64 48
  store <4 x float> %42, ptr %45, align 1
  %46 = and i64 %9, -64
  %47 = add i64 %46, 64
  %48 = inttoptr i64 %47 to ptr
  %49 = getelementptr inbounds i8, ptr %7, i64 -64
  br label %50

50:                                               ; preds = %54, %34
  %.3.i = phi ptr [ %48, %34 ], [ %66, %54 ]
  tail call void asm sideeffect "", "r,~{dirflag},~{fpsr},~{flags}"(ptr %.3.i) #54, !srcloc !9
  %51 = icmp ugt ptr %.3.i, %49
  br i1 %51, label %52, label %54

52:                                               ; preds = %50
  %53 = icmp eq ptr %.3.i, %7
  br i1 %53, label %stbir_simd_memcpy.exit, label %54

54:                                               ; preds = %52, %50
  %.4.i = phi ptr [ %.3.i, %50 ], [ %49, %52 ]
  %55 = getelementptr inbounds i8, ptr %.4.i, i64 %10
  %56 = load <4 x float>, ptr %55, align 1
  %57 = getelementptr inbounds nuw i8, ptr %55, i64 16
  %58 = load <4 x float>, ptr %57, align 1
  %59 = getelementptr inbounds nuw i8, ptr %55, i64 32
  %60 = load <4 x float>, ptr %59, align 1
  %61 = getelementptr inbounds nuw i8, ptr %55, i64 48
  %62 = load <4 x float>, ptr %61, align 1
  store <4 x float> %56, ptr %.4.i, align 1
  %63 = getelementptr inbounds nuw i8, ptr %.4.i, i64 16
  store <4 x float> %58, ptr %63, align 1
  %64 = getelementptr inbounds nuw i8, ptr %.4.i, i64 32
  store <4 x float> %60, ptr %64, align 1
  %65 = getelementptr inbounds nuw i8, ptr %.4.i, i64 48
  store <4 x float> %62, ptr %65, align 1
  %66 = getelementptr inbounds nuw i8, ptr %.4.i, i64 64
  br label %50, !llvm.loop !10

stbir_simd_memcpy.exit:                           ; preds = %52, %28, %.preheader.i, %14, %3
  ret void
}